target datalayout = "e-m:e-p270:32:32-p271:32:32-p272:64:64-i64:64-i128:128-f80:128-n8:16:32:64-S128"
target triple = "x86_64-pc-linux-gnu"

%struct._packet_info = type { ptr, ptr, i32, i32, %struct.nstime_t, %struct.nstime_t, %struct.nstime_t, i32, ptr, ptr, ptr, ptr, %struct._address, %struct._address, %struct._address, %struct._address, %struct._address, %struct._address, i32, ptr, i32, %struct.anon, i32, i32, i32, i32, ptr, i32, ptr, ptr, i16, i16, i32, i32, i16, i32, i32, ptr, ptr, ptr, i8, i8, i16, i16, i16, i32, i16, i16, ptr, ptr, ptr, ptr, ptr, i32 }
%struct.nstime_t = type { i64, i32 }
%struct._address = type { i32, i32, ptr, ptr }
%struct.anon = type { i8, [3 x i8] }

@hf_zbee_zdp_ext_addr = external global i32, align 4
@hf_zbee_zdp_nwk_addr = external global i32, align 4
@hf_zbee_zdp_endpoint = external global i32, align 4
@hf_zbee_zdp_disc_simple_count = external global i32, align 4
@ett_zbee_zdp_endpoint = external global i32, align 4
@.str.16 = private unnamed_addr constant [17 x i8] c"Active Endpoints\00", align 1
@.str.17 = private unnamed_addr constant [13 x i8] c", Device: %s\00", align 1

; Function Attrs: nounwind uwtable
define hidden void @dissect_zbee_zdp_req_store_active_ep(ptr noundef %0, ptr noundef %1, ptr noundef %2) #0 {
  %4 = alloca ptr, align 8
  %5 = alloca ptr, align 8
  %6 = alloca ptr, align 8
  %7 = alloca ptr, align 8
  %8 = alloca i32, align 4
  %9 = alloca i32, align 4
  %10 = alloca i64, align 8
  %11 = alloca i32, align 4
  store ptr %0, ptr %4, align 8
  store ptr %1, ptr %5, align 8
  store ptr %2, ptr %6, align 8
  store i32 0, ptr %8, align 4
  %12 = load ptr, ptr %6, align 8
  %13 = load i32, ptr @hf_zbee_zdp_nwk_addr, align 4
  %14 = load ptr, ptr %4, align 8
  %15 = load i32, ptr %8, align 4
  %16 = call ptr @proto_tree_add_item(ptr noundef %12, i32 noundef %13, ptr noundef %14, i32 noundef %15, i32 noundef 2, i32 noundef -2147483648)
  %17 = load i32, ptr %8, align 4
  %18 = add i32 %17, 2
  store i32 %18, ptr %8, align 4
  %19 = load ptr, ptr %6, align 8
  %20 = load i32, ptr @hf_zbee_zdp_ext_addr, align 4
  %21 = load ptr, ptr %4, align 8
  %22 = call i64 @zbee_parse_eui64(ptr noundef %19, i32 noundef %20, ptr noundef %21, ptr noundef %8, i32 noundef 8, ptr noundef null)
  store i64 %22, ptr %10, align 8
  %23 = load ptr, ptr %6, align 8
  %24 = load i32, ptr @hf_zbee_zdp_disc_simple_count, align 4
  %25 = load ptr, ptr %4, align 8
  %26 = load i32, ptr %8, align 4
  %27 = call ptr @proto_tree_add_item_ret_uint(ptr noundef %23, i32 noundef %24, ptr noundef %25, i32 noundef %26, i32 noundef 1, i32 noundef -2147483648, ptr noundef %11)
  %28 = load i32, ptr %8, align 4
  %29 = add i32 %28, 1
  store i32 %29, ptr %8, align 4
  %30 = load ptr, ptr %6, align 8
  %31 = load ptr, ptr %4, align 8
  %32 = load i32, ptr %8, align 4
  %33 = load i32, ptr %11, align 4
  %34 = load i32, ptr @ett_zbee_zdp_endpoint, align 4
  %35 = call ptr @proto_tree_add_subtree(ptr noundef %30, ptr noundef %31, i32 noundef %32, i32 noundef %33, i32 noundef %34, ptr noundef null, ptr noundef @.str.16)
  store ptr %35, ptr %7, align 8
  store i32 0, ptr %9, align 4
  br label %36

36:                                               ; preds = %48, %3
  %37 = load i32, ptr %9, align 4
  %38 = load i32, ptr %11, align 4
  %39 = icmp ult i32 %37, %38
  br i1 %39, label %40, label %51

40:                                               ; preds = %36
  %41 = load ptr, ptr %7, align 8
  %42 = load i32, ptr @hf_zbee_zdp_endpoint, align 4
  %43 = load ptr, ptr %4, align 8
  %44 = load i32, ptr %8, align 4
  %45 = call ptr @proto_tree_add_item(ptr noundef %41, i32 noundef %42, ptr noundef %43, i32 noundef %44, i32 noundef 1, i32 noundef -2147483648)
  %46 = load i32, ptr %8, align 4
  %47 = add i32 %46, 1
  store i32 %47, ptr %8, align 4
  br label %48

48:                                               ; preds = %40
  %49 = load i32, ptr %9, align 4
  %50 = add i32 %49, 1
  store i32 %50, ptr %9, align 4
  br label %36, !llvm.loop !10

51:                                               ; preds = %36
  %52 = load ptr, ptr %6, align 8
  %53 = load ptr, ptr %5, align 8
  %54 = load ptr, ptr %5, align 8
  %55 = getelementptr inbounds %struct._packet_info, ptr %54, i32 0, i32 50
  %56 = load ptr, ptr %55, align 8
  %57 = load i64, ptr %10, align 8
  %58 = call ptr @eui64_to_display(ptr noundef %56, i64 noundef %57)
  call void (ptr, ptr, ptr, ...) @zbee_append_info(ptr noundef %52, ptr noundef %53, ptr noundef @.str.17, ptr noundef %58)
  %59 = load ptr, ptr %4, align 8
  %60 = load i32, ptr %8, align 4
  %61 = load ptr, ptr %5, align 8
  %62 = load ptr, ptr %6, align 8
  call void @zdp_dump_excess(ptr noundef %59, i32 noundef %60, ptr noundef %61, ptr noundef %62)
  ret void
}