; Function Attrs: nounwind uwtable
define hidden void @dissect_zbee_zdp_req_store_active_ep(ptr noundef %0, ptr noundef %1, ptr noundef %2) local_unnamed_addr #0 {
  %4 = alloca i32, align 4
  %5 = alloca i32, align 4
  %6 = load i32, ptr @hf_zbee_zdp_nwk_addr, align 4
  %7 = tail call ptr @proto_tree_add_item(ptr noundef %2, i32 noundef %6, ptr noundef %0, i32 noundef 0, i32 noundef 2, i32 noundef -2147483648) #2
  store i32 2, ptr %4, align 4
  %8 = load i32, ptr @hf_zbee_zdp_ext_addr, align 4
  %9 = call i64 @zbee_parse_eui64(ptr noundef %2, i32 noundef %8, ptr noundef %0, ptr noundef nonnull %4, i32 noundef 8, ptr noundef null) #2
  %10 = load i32, ptr @hf_zbee_zdp_disc_simple_count, align 4
  %11 = load i32, ptr %4, align 4
  %12 = call ptr @proto_tree_add_item_ret_uint(ptr noundef %2, i32 noundef %10, ptr noundef %0, i32 noundef %11, i32 noundef 1, i32 noundef -2147483648, ptr noundef nonnull %5) #2
  %13 = load i32, ptr %4, align 4
  %14 = add i32 %13, 1
  store i32 %14, ptr %4, align 4
  %15 = load i32, ptr %5, align 4
  %16 = load i32, ptr @ett_zbee_zdp_endpoint, align 4
  %17 = call ptr @proto_tree_add_subtree(ptr noundef %2, ptr noundef %0, i32 noundef %14, i32 noundef %15, i32 noundef %16, ptr noundef null, ptr noundef nonnull @.str.16) #2
  %18 = load i32, ptr %5, align 4
  %.not = icmp eq i32 %18, 0
  br i1 %.not, label %._crit_edge, label %.lr.ph.preheader

.lr.ph.preheader:                                 ; preds = %3
  %.pre = load i32, ptr %4, align 4
  br label %.lr.ph

.lr.ph:                                           ; preds = %.lr.ph.preheader, %.lr.ph
  %19 = phi i32 [ %23, %.lr.ph ], [ %.pre, %.lr.ph.preheader ]
  %.018 = phi i32 [ %24, %.lr.ph ], [ 0, %.lr.ph.preheader ]
  %20 = load i32, ptr @hf_zbee_zdp_endpoint, align 4
  %21 = call ptr @proto_tree_add_item(ptr noundef %17, i32 noundef %20, ptr noundef %0, i32 noundef %19, i32 noundef 1, i32 noundef -2147483648) #2
  %22 = load i32, ptr %4, align 4
  %23 = add i32 %22, 1
  store i32 %23, ptr %4, align 4
  %24 = add nuw i32 %.018, 1
  %25 = load i32, ptr %5, align 4
  %26 = icmp ult i32 %24, %25
  br i1 %26, label %.lr.ph, label %._crit_edge, !llvm.loop !10

._crit_edge:                                      ; preds = %.lr.ph, %3
  %27 = getelementptr inbounds nuw i8, ptr %1, i64 408
  %28 = load ptr, ptr %27, align 8
  %29 = call ptr @eui64_to_display(ptr noundef %28, i64 noundef %9) #2
  call void (ptr, ptr, ptr, ...) @zbee_append_info(ptr noundef %2, ptr noundef %1, ptr noundef nonnull @.str.17, ptr noundef %29) #2
  %30 = load i32, ptr %4, align 4
  call void @zdp_dump_excess(ptr noundef %0, i32 noundef %30, ptr noundef %1, ptr noundef %2) #2
  ret void
}